; Function Attrs: mustprogress uwtable
define noundef i32 @_ZN6icu_7722FormattedStringBuilder16prepareForInsertEiiR10UErrorCode(ptr noundef nonnull align 8 dereferenceable(136) %0, i32 noundef %1, i32 noundef %2, ptr noundef nonnull align 4 captures(none) dereferenceable(4) %3) local_unnamed_addr #5 align 2 {
  %5 = load i32, ptr %3, align 4, !tbaa !16
  %6 = icmp slt i32 %5, 1
  br i1 %6, label %7, label %36

7:                                                ; preds = %4
  %8 = icmp eq i32 %1, 0
  br i1 %8, label %9, label %18

9:                                                ; preds = %7
  %10 = getelementptr inbounds nuw i8, ptr %0, i64 128
  %11 = load i32, ptr %10, align 8, !tbaa !9
  %12 = sub nsw i32 %11, %2
  %13 = icmp sgt i32 %12, -1
  br i1 %13, label %14, label %18

14:                                               ; preds = %9
  store i32 %12, ptr %10, align 8, !tbaa !9
  %15 = getelementptr inbounds nuw i8, ptr %0, i64 132
  %16 = load i32, ptr %15, align 4, !tbaa !10
  %17 = add nsw i32 %16, %2
  store i32 %17, ptr %15, align 4, !tbaa !10
  br label %36

18:                                               ; preds = %9, %7
  %19 = getelementptr inbounds nuw i8, ptr %0, i64 132
  %20 = load i32, ptr %19, align 4, !tbaa !10
  %21 = icmp eq i32 %1, %20
  br i1 %21, label %22, label %34

22:                                               ; preds = %18
  %23 = load i8, ptr %0, align 8, !tbaa !3, !range !11, !noundef !12
  %24 = trunc nuw i8 %23 to i1
  %25 = getelementptr inbounds nuw i8, ptr %0, i64 16
  %26 = load i32, ptr %25, align 8
  %27 = select i1 %24, i32 %26, i32 40
  %28 = getelementptr inbounds nuw i8, ptr %0, i64 128
  %29 = load i32, ptr %28, align 8, !tbaa !9
  %30 = add i32 %29, %1
  %31 = sub i32 %27, %30
  %.not16 = icmp sgt i32 %2, %31
  br i1 %.not16, label %34, label %32

32:                                               ; preds = %22
  %33 = add nsw i32 %1, %2
  store i32 %33, ptr %19, align 4, !tbaa !10
  br label %36

34:                                               ; preds = %22, %18
  %35 = tail call noundef i32 @_ZN6icu_7722FormattedStringBuilder22prepareForInsertHelperEiiR10UErrorCode(ptr noundef nonnull align 8 dereferenceable(136) %0, i32 noundef %1, i32 noundef %2, ptr noundef nonnull align 4 dereferenceable(4) %3)
  br label %36

36:                                               ; preds = %4, %34, %32, %14
  %.0 = phi i32 [ %12, %14 ], [ %30, %32 ], [ %35, %34 ], [ %2, %4 ]
  ret i32 %.0
}